target datalayout = "e-m:e-p270:32:32-p271:32:32-p272:64:64-i64:64-i128:128-f80:128-n8:16:32:64-S128"
target triple = "x86_64-unknown-linux-gnu"

%class.btVector3 = type { [4 x float] }
%class.btAlignedObjectArray.0 = type <{ %class.btAlignedAllocator.1, [3 x i8], i32, i32, [4 x i8], ptr, i8, [7 x i8] }>
%class.btAlignedAllocator.1 = type { i8 }
%class.btAlignedObjectArray.4 = type <{ %class.btAlignedAllocator.5, [3 x i8], i32, i32, [4 x i8], ptr, i8, [7 x i8] }>
%class.btAlignedAllocator.5 = type { i8 }
%class.btReducedDeformableBodySolver = type { %class.btDeformableBodySolver.base, i8, float, float, %class.btVector3, [4 x i8], %class.btAlignedObjectArray.12, %class.btAlignedObjectArray.16, %class.btAlignedObjectArray.20 }
%class.btDeformableBodySolver.base = type <{ %class.btSoftBodySolver.base, i32, %class.btAlignedObjectArray.4, %class.btAlignedObjectArray.4, %class.btAlignedObjectArray.4, %class.btAlignedObjectArray.4, %class.btAlignedObjectArray.8, %class.btAlignedObjectArray.4, float, [4 x i8], %class.btConjugateGradient, %class.btConjugateResidual, i8, [3 x i8], i32, float, i8, i8, [2 x i8], ptr, i8 }>
%class.btSoftBodySolver.base = type <{ ptr, i32, i32, float }>
%class.btAlignedObjectArray.8 = type <{ %class.btAlignedAllocator.9, [3 x i8], i32, i32, [4 x i8], ptr, i8, [7 x i8] }>
%class.btAlignedAllocator.9 = type { i8 }
%class.btConjugateGradient = type { %class.btKrylovSolver, %class.btAlignedObjectArray.4, %class.btAlignedObjectArray.4, %class.btAlignedObjectArray.4, %class.btAlignedObjectArray.4 }
%class.btKrylovSolver = type { ptr, i32, float }
%class.btConjugateResidual = type <{ %class.btKrylovSolver, %class.btAlignedObjectArray.4, %class.btAlignedObjectArray.4, %class.btAlignedObjectArray.4, %class.btAlignedObjectArray.4, %class.btAlignedObjectArray.4, %class.btAlignedObjectArray.4, float, [4 x i8] }>
%class.btAlignedObjectArray.12 = type <{ %class.btAlignedAllocator.13, [3 x i8], i32, i32, [4 x i8], ptr, i8, [7 x i8] }>
%class.btAlignedAllocator.13 = type { i8 }
%class.btAlignedObjectArray.16 = type <{ %class.btAlignedAllocator.17, [3 x i8], i32, i32, [4 x i8], ptr, i8, [7 x i8] }>
%class.btAlignedAllocator.17 = type { i8 }
%class.btAlignedObjectArray.20 = type <{ %class.btAlignedAllocator.21, [3 x i8], i32, i32, [4 x i8], ptr, i8, [7 x i8] }>
%class.btAlignedAllocator.21 = type { i8 }
%class.btDeformableBodySolver = type <{ %class.btSoftBodySolver.base, i32, %class.btAlignedObjectArray.4, %class.btAlignedObjectArray.4, %class.btAlignedObjectArray.4, %class.btAlignedObjectArray.4, %class.btAlignedObjectArray.8, %class.btAlignedObjectArray.4, float, [4 x i8], %class.btConjugateGradient, %class.btConjugateResidual, i8, [3 x i8], i32, float, i8, i8, [2 x i8], ptr, i8, [7 x i8] }>
%class.btReducedDeformableBody = type { %class.btSoftBody, i8, i8, float, float, [4 x i8], %class.btAlignedObjectArray.180, %class.btAlignedObjectArray.180, %class.btAlignedObjectArray.88, %class.btAlignedObjectArray.88, %class.btAlignedObjectArray.4, %class.btVector3, %class.btVector3, %class.btAlignedObjectArray.88, %class.btVector3, %class.btVector3, %class.btVector3, float, float, %class.btVector3, %class.btVector3, float, float, %class.btVector3, %class.btVector3, %class.btMatrix3x3, %class.btTransform, %class.btMatrix3x3, %class.btMatrix3x3, %class.btMatrix3x3, %class.btVector3, float, float, i32, i32, %class.btAlignedObjectArray.180, %class.btAlignedObjectArray.88, %class.btAlignedObjectArray.88, %class.btAlignedObjectArray.88, %class.btAlignedObjectArray.88, %class.btAlignedObjectArray.88, %class.btAlignedObjectArray.88, %class.btAlignedObjectArray.88, %class.btAlignedObjectArray.88, %class.btAlignedObjectArray.88, %class.btAlignedObjectArray.4, %class.btAlignedObjectArray.88, %class.btAlignedObjectArray.0, i32, [4 x i8], %class.btAlignedObjectArray.0 }
%class.btSoftBody = type { %class.btCollisionObject.base, [4 x i8], %class.btAlignedObjectArray.76, ptr, %"struct.btSoftBody::Config", %"struct.btSoftBody::SolverState", [4 x i8], %"struct.btSoftBody::Pose", ptr, ptr, %class.btAlignedObjectArray.92, %class.btAlignedObjectArray.96, %class.btAlignedObjectArray.100, %class.btAlignedObjectArray.104, %class.btAlignedObjectArray.108, %class.btAlignedObjectArray.112, %class.btAlignedObjectArray.116, %class.btAlignedObjectArray.120, %class.btAlignedObjectArray.120, %class.btAlignedObjectArray.124, %class.btAlignedObjectArray.128, %class.btAlignedObjectArray.132, %class.btAlignedObjectArray.136, %class.btAlignedObjectArray.140, %class.btAlignedObjectArray.144, %class.btAlignedObjectArray.140, %class.btAlignedObjectArray.148, %class.btAlignedObjectArray.152, %class.btAlignedObjectArray.156, float, [2 x %class.btVector3], i8, %struct.btDbvt, %struct.btDbvt, ptr, %struct.btDbvt, %class.btAlignedObjectArray.164, float, float, float, [4 x i8], %class.btAlignedObjectArray.4, float, float, i8, [7 x i8], %class.btAlignedObjectArray.4, %class.btAlignedObjectArray.168, %class.btAlignedObjectArray.172, %class.btAlignedObjectArray.88, i8, i8, [6 x i8], %class.btAlignedObjectArray.176, %class.btVector3, float, i8, [3 x i8], %class.btAlignedObjectArray.0 }
%class.btCollisionObject.base = type <{ ptr, %class.btTransform, %class.btTransform, %class.btVector3, %class.btVector3, %class.btVector3, i32, float, ptr, ptr, ptr, ptr, i32, i32, i32, i32, i32, float, float, float, float, float, float, float, i32, [4 x i8], ptr, i32, i32, i32, float, float, float, i32, [4 x i8], %class.btAlignedObjectArray.76, i32, %class.btVector3 }>
%class.btAlignedObjectArray.76 = type <{ %class.btAlignedAllocator.77, [3 x i8], i32, i32, [4 x i8], ptr, i8, [7 x i8] }>
%class.btAlignedAllocator.77 = type { i8 }
%"struct.btSoftBody::Config" = type { i32, float, float, float, float, float, float, float, float, float, float, float, float, float, float, float, float, float, float, float, float, i32, i32, i32, i32, i32, %class.btAlignedObjectArray.80, %class.btAlignedObjectArray.84, %class.btAlignedObjectArray.84, float, float }
%class.btAlignedObjectArray.80 = type <{ %class.btAlignedAllocator.81, [3 x i8], i32, i32, [4 x i8], ptr, i8, [7 x i8] }>
%class.btAlignedAllocator.81 = type { i8 }
%class.btAlignedObjectArray.84 = type <{ %class.btAlignedAllocator.85, [3 x i8], i32, i32, [4 x i8], ptr, i8, [7 x i8] }>
%class.btAlignedAllocator.85 = type { i8 }
%"struct.btSoftBody::SolverState" = type { float, float, float, float, float }
%"struct.btSoftBody::Pose" = type { i8, i8, float, %class.btAlignedObjectArray.4, %class.btAlignedObjectArray.88, %class.btVector3, %class.btMatrix3x3, %class.btMatrix3x3, %class.btMatrix3x3 }
%class.btAlignedObjectArray.92 = type <{ %class.btAlignedAllocator.93, [3 x i8], i32, i32, [4 x i8], ptr, i8, [7 x i8] }>
%class.btAlignedAllocator.93 = type { i8 }
%class.btAlignedObjectArray.96 = type <{ %class.btAlignedAllocator.97, [3 x i8], i32, i32, [4 x i8], ptr, i8, [7 x i8] }>
%class.btAlignedAllocator.97 = type { i8 }
%class.btAlignedObjectArray.100 = type <{ %class.btAlignedAllocator.101, [3 x i8], i32, i32, [4 x i8], ptr, i8, [7 x i8] }>
%class.btAlignedAllocator.101 = type { i8 }
%class.btAlignedObjectArray.104 = type <{ %class.btAlignedAllocator.105, [3 x i8], i32, i32, [4 x i8], ptr, i8, [7 x i8] }>
%class.btAlignedAllocator.105 = type { i8 }
%class.btAlignedObjectArray.108 = type <{ %class.btAlignedAllocator.109, [3 x i8], i32, i32, [4 x i8], ptr, i8, [7 x i8] }>
%class.btAlignedAllocator.109 = type { i8 }
%class.btAlignedObjectArray.112 = type <{ %class.btAlignedAllocator.113, [3 x i8], i32, i32, [4 x i8], ptr, i8, [7 x i8] }>
%class.btAlignedAllocator.113 = type { i8 }
%class.btAlignedObjectArray.116 = type <{ %class.btAlignedAllocator.117, [3 x i8], i32, i32, [4 x i8], ptr, i8, [7 x i8] }>
%class.btAlignedAllocator.117 = type { i8 }
%class.btAlignedObjectArray.120 = type <{ %class.btAlignedAllocator.121, [3 x i8], i32, i32, [4 x i8], ptr, i8, [7 x i8] }>
%class.btAlignedAllocator.121 = type { i8 }
%class.btAlignedObjectArray.124 = type <{ %class.btAlignedAllocator.125, [3 x i8], i32, i32, [4 x i8], ptr, i8, [7 x i8] }>
%class.btAlignedAllocator.125 = type { i8 }
%class.btAlignedObjectArray.128 = type <{ %class.btAlignedAllocator.129, [3 x i8], i32, i32, [4 x i8], ptr, i8, [7 x i8] }>
%class.btAlignedAllocator.129 = type { i8 }
%class.btAlignedObjectArray.132 = type <{ %class.btAlignedAllocator.133, [3 x i8], i32, i32, [4 x i8], ptr, i8, [7 x i8] }>
%class.btAlignedAllocator.133 = type { i8 }
%class.btAlignedObjectArray.136 = type <{ %class.btAlignedAllocator.137, [3 x i8], i32, i32, [4 x i8], ptr, i8, [7 x i8] }>
%class.btAlignedAllocator.137 = type { i8 }
%class.btAlignedObjectArray.144 = type <{ %class.btAlignedAllocator.145, [3 x i8], i32, i32, [4 x i8], ptr, i8, [7 x i8] }>
%class.btAlignedAllocator.145 = type { i8 }
%class.btAlignedObjectArray.140 = type <{ %class.btAlignedAllocator.141, [3 x i8], i32, i32, [4 x i8], ptr, i8, [7 x i8] }>
%class.btAlignedAllocator.141 = type { i8 }
%class.btAlignedObjectArray.148 = type <{ %class.btAlignedAllocator.149, [3 x i8], i32, i32, [4 x i8], ptr, i8, [7 x i8] }>
%class.btAlignedAllocator.149 = type { i8 }
%class.btAlignedObjectArray.152 = type <{ %class.btAlignedAllocator.153, [3 x i8], i32, i32, [4 x i8], ptr, i8, [7 x i8] }>
%class.btAlignedAllocator.153 = type { i8 }
%class.btAlignedObjectArray.156 = type <{ %class.btAlignedAllocator.157, [3 x i8], i32, i32, [4 x i8], ptr, i8, [7 x i8] }>
%class.btAlignedAllocator.157 = type { i8 }
%struct.btDbvt = type { ptr, ptr, i32, i32, i32, [4 x i8], %class.btAlignedObjectArray.160 }
%class.btAlignedObjectArray.160 = type <{ %class.btAlignedAllocator.161, [3 x i8], i32, i32, [4 x i8], ptr, i8, [7 x i8] }>
%class.btAlignedAllocator.161 = type { i8 }
%class.btAlignedObjectArray.164 = type <{ %class.btAlignedAllocator.165, [3 x i8], i32, i32, [4 x i8], ptr, i8, [7 x i8] }>
%class.btAlignedAllocator.165 = type { i8 }
%class.btAlignedObjectArray.168 = type <{ %class.btAlignedAllocator.169, [3 x i8], i32, i32, [4 x i8], ptr, i8, [7 x i8] }>
%class.btAlignedAllocator.169 = type { i8 }
%class.btAlignedObjectArray.172 = type <{ %class.btAlignedAllocator.173, [3 x i8], i32, i32, [4 x i8], ptr, i8, [7 x i8] }>
%class.btAlignedAllocator.173 = type { i8 }
%class.btAlignedObjectArray.176 = type <{ %class.btAlignedAllocator.177, [3 x i8], i32, i32, [4 x i8], ptr, i8, [7 x i8] }>
%class.btAlignedAllocator.177 = type { i8 }
%class.btTransform = type { %class.btMatrix3x3, %class.btVector3 }
%class.btMatrix3x3 = type { [3 x %class.btVector3] }
%class.btAlignedObjectArray.180 = type <{ %class.btAlignedAllocator.181, [3 x i8], i32, i32, [4 x i8], ptr, i8, [7 x i8] }>
%class.btAlignedAllocator.181 = type { i8 }
%class.btAlignedObjectArray.88 = type <{ %class.btAlignedAllocator.89, [3 x i8], i32, i32, [4 x i8], ptr, i8, [7 x i8] }>
%class.btAlignedAllocator.89 = type { i8 }

; Function Attrs: mustprogress nounwind uwtable
define linkonce_odr dso_local noundef nonnull align 8 dereferenceable(8) ptr @_ZN20btAlignedObjectArrayIP10btSoftBodyEixEi(ptr noundef nonnull align 8 dereferenceable(25) %this, i32 noundef %n) #1 comdat align 2 {
entry:
  %this.addr = alloca ptr, align 8
  %n.addr = alloca i32, align 4
  store ptr %this, ptr %this.addr, align 8
  store i32 %n, ptr %n.addr, align 4
  %this1 = load ptr, ptr %this.addr, align 8
  %m_data = getelementptr inbounds %class.btAlignedObjectArray.8, ptr %this1, i32 0, i32 5
  %0 = load ptr, ptr %m_data, align 8
  %1 = load i32, ptr %n.addr, align 4
  %idxprom = sext i32 %1 to i64
  %arrayidx = getelementptr inbounds ptr, ptr %0, i64 %idxprom
  ret ptr %arrayidx
}

; Function Attrs: mustprogress nounwind uwtable
define linkonce_odr dso_local noundef i32 @_ZNK20btAlignedObjectArrayIP10btSoftBodyE4sizeEv(ptr noundef nonnull align 8 dereferenceable(25) %this) #1 comdat align 2 {
entry:
  %this.addr = alloca ptr, align 8
  store ptr %this, ptr %this.addr, align 8
  %this1 = load ptr, ptr %this.addr, align 8
  %m_size = getelementptr inbounds %class.btAlignedObjectArray.8, ptr %this1, i32 0, i32 2
  %0 = load i32, ptr %m_size, align 4
  ret i32 %0
}

; Function Attrs: mustprogress uwtable
define dso_local void @_ZN29btReducedDeformableBodySolver18applyExplicitForceEf(ptr noundef nonnull align 8 dereferenceable(736) %this, float noundef %solverdt) #5 align 2 {
entry:
  %this.addr = alloca ptr, align 8
  %solverdt.addr = alloca float, align 4
  %i = alloca i32, align 4
  %rsb = alloca ptr, align 8
  store ptr %this, ptr %this.addr, align 8
  store float %solverdt, ptr %solverdt.addr, align 4
  %this1 = load ptr, ptr %this.addr, align 8
  store i32 0, ptr %i, align 4
  br label %for.cond

for.cond:                                         ; preds = %for.inc, %entry
  %0 = load i32, ptr %i, align 4
  %m_softBodies = getelementptr inbounds %class.btDeformableBodySolver, ptr %this1, i32 0, i32 6
  %call = call noundef i32 @_ZNK20btAlignedObjectArrayIP10btSoftBodyE4sizeEv(ptr noundef nonnull align 8 dereferenceable(25) %m_softBodies)
  %cmp = icmp slt i32 %0, %call
  br i1 %cmp, label %for.body, label %for.end

for.body:                                         ; preds = %for.cond
  %m_softBodies2 = getelementptr inbounds %class.btDeformableBodySolver, ptr %this1, i32 0, i32 6
  %1 = load i32, ptr %i, align 4
  %call3 = call noundef nonnull align 8 dereferenceable(8) ptr @_ZN20btAlignedObjectArrayIP10btSoftBodyEixEi(ptr noundef nonnull align 8 dereferenceable(25) %m_softBodies2, i32 noundef %1)
  %2 = load ptr, ptr %call3, align 8
  store ptr %2, ptr %rsb, align 8
  %3 = load ptr, ptr %rsb, align 8
  %m_gravity = getelementptr inbounds %class.btReducedDeformableBodySolver, ptr %this1, i32 0, i32 4
  %4 = load float, ptr %solverdt.addr, align 4
  call void @_ZN23btReducedDeformableBody17applyRigidGravityERK9btVector3f(ptr noundef nonnull align 8 dereferenceable(3176) %3, ptr noundef nonnull align 4 dereferenceable(16) %m_gravity, float noundef %4)
  %5 = load ptr, ptr %rsb, align 8
  %call4 = call noundef zeroext i1 @_ZNK23btReducedDeformableBody17isReducedModesOFFEv(ptr noundef nonnull align 8 dereferenceable(3176) %5)
  br i1 %call4, label %if.end, label %if.then

if.then:                                          ; preds = %for.body
  %6 = load ptr, ptr %rsb, align 8
  %7 = load ptr, ptr %rsb, align 8
  %m_reducedDofsBuffer = getelementptr inbounds %class.btReducedDeformableBody, ptr %7, i32 0, i32 37
  call void @_ZN23btReducedDeformableBody24applyReducedElasticForceERK20btAlignedObjectArrayIfE(ptr noundef nonnull align 8 dereferenceable(3176) %6, ptr noundef nonnull align 8 dereferenceable(25) %m_reducedDofsBuffer)
  %8 = load ptr, ptr %rsb, align 8
  %9 = load ptr, ptr %rsb, align 8
  %m_reducedVelocityBuffer = getelementptr inbounds %class.btReducedDeformableBody, ptr %9, i32 0, i32 39
  call void @_ZN23btReducedDeformableBody24applyReducedDampingForceERK20btAlignedObjectArrayIfE(ptr noundef nonnull align 8 dereferenceable(3176) %8, ptr noundef nonnull align 8 dereferenceable(25) %m_reducedVelocityBuffer)
  %10 = load ptr, ptr %rsb, align 8
  %11 = load float, ptr %solverdt.addr, align 4
  call void @_ZN23btReducedDeformableBody21updateReducedVelocityEf(ptr noundef nonnull align 8 dereferenceable(3176) %10, float noundef %11)
  br label %if.end

if.end:                                           ; preds = %if.then, %for.body
  br label %for.inc

for.inc:                                          ; preds = %if.end
  %12 = load i32, ptr %i, align 4
  %inc = add nsw i32 %12, 1
  store i32 %inc, ptr %i, align 4
  br label %for.cond, !llvm.loop !30

for.end:                                          ; preds = %for.cond
  ret void
}