; Function Attrs: mustprogress uwtable
define dso_local void @_ZN29btReducedDeformableBodySolver18applyExplicitForceEf(ptr noundef nonnull align 8 dereferenceable(736) %this, float noundef %solverdt) local_unnamed_addr #3 align 2 {
entry:
  %m_size.i = getelementptr inbounds i8, ptr %this, i64 156
  %0 = load i32, ptr %m_size.i, align 4
  %cmp10 = icmp sgt i32 %0, 0
  br i1 %cmp10, label %for.body.lr.ph, label %for.end

for.body.lr.ph:                                   ; preds = %entry
  %m_data.i = getelementptr inbounds i8, ptr %this, i64 168
  %m_gravity = getelementptr inbounds i8, ptr %this, i64 620
  br label %for.body

for.body:                                         ; preds = %for.body.lr.ph, %for.inc
  %indvars.iv = phi i64 [ 0, %for.body.lr.ph ], [ %indvars.iv.next, %for.inc ]
  %1 = load ptr, ptr %m_data.i, align 8
  %arrayidx.i = getelementptr inbounds ptr, ptr %1, i64 %indvars.iv
  %2 = load ptr, ptr %arrayidx.i, align 8
  tail call void @_ZN23btReducedDeformableBody17applyRigidGravityERK9btVector3f(ptr noundef nonnull align 8 dereferenceable(3176) %2, ptr noundef nonnull align 4 dereferenceable(16) %m_gravity, float noundef %solverdt)
  %call4 = tail call noundef zeroext i1 @_ZNK23btReducedDeformableBody17isReducedModesOFFEv(ptr noundef nonnull align 8 dereferenceable(3176) %2)
  br i1 %call4, label %for.inc, label %if.then

if.then:                                          ; preds = %for.body
  %m_reducedDofsBuffer = getelementptr inbounds i8, ptr %2, i64 2784
  tail call void @_ZN23btReducedDeformableBody24applyReducedElasticForceERK20btAlignedObjectArrayIfE(ptr noundef nonnull align 8 dereferenceable(3176) %2, ptr noundef nonnull align 8 dereferenceable(25) %m_reducedDofsBuffer)
  %m_reducedVelocityBuffer = getelementptr inbounds i8, ptr %2, i64 2848
  tail call void @_ZN23btReducedDeformableBody24applyReducedDampingForceERK20btAlignedObjectArrayIfE(ptr noundef nonnull align 8 dereferenceable(3176) %2, ptr noundef nonnull align 8 dereferenceable(25) %m_reducedVelocityBuffer)
  tail call void @_ZN23btReducedDeformableBody21updateReducedVelocityEf(ptr noundef nonnull align 8 dereferenceable(3176) %2, float noundef %solverdt)
  br label %for.inc

for.inc:                                          ; preds = %for.body, %if.then
  %indvars.iv.next = add nuw nsw i64 %indvars.iv, 1
  %3 = load i32, ptr %m_size.i, align 4
  %4 = sext i32 %3 to i64
  %cmp = icmp slt i64 %indvars.iv.next, %4
  br i1 %cmp, label %for.body, label %for.end, !llvm.loop !38

for.end:                                          ; preds = %for.inc, %entry
  ret void
}